target datalayout = "e-m:e-p270:32:32-p271:32:32-p272:64:64-i64:64-i128:128-f80:128-n8:16:32:64-S128"
target triple = "x86_64-pc-linux-gnu"

@UseChaCha20Intrinsics = external global i8, align 1
@_ZN12StubRoutines14_chacha20BlockE = external global ptr, align 8
@_ZN19Abstract_VM_Version9_featuresE = external global i64, align 8

; Function Attrs: mustprogress nounwind uwtable
define linkonce_odr hidden noundef zeroext i1 @_ZN10VM_Version13supports_evexEv() #1 comdat align 2 {
  %1 = load i64, ptr @_ZN19Abstract_VM_Version9_featuresE, align 8
  %2 = and i64 %1, 134217728
  %3 = icmp ne i64 %2, 0
  ret i1 %3
}

; Function Attrs: mustprogress nounwind uwtable
define hidden void @_ZN13StubGenerator21generate_chacha_stubsEv(ptr noundef nonnull align 8 dereferenceable(24) %0) #1 align 2 {
  %2 = alloca ptr, align 8
  store ptr %0, ptr %2, align 8
  %3 = load ptr, ptr %2, align 8
  %4 = load i8, ptr @UseChaCha20Intrinsics, align 1
  %5 = trunc i8 %4 to i1
  br i1 %5, label %6, label %13

6:                                                ; preds = %1
  %7 = call noundef zeroext i1 @_ZN10VM_Version13supports_evexEv()
  br i1 %7, label %8, label %10

8:                                                ; preds = %6
  %9 = call noundef ptr @_ZN13StubGenerator29generate_chacha20Block_avx512Ev(ptr noundef nonnull align 8 dereferenceable(24) %3)
  store ptr %9, ptr @_ZN12StubRoutines14_chacha20BlockE, align 8
  br label %12

10:                                               ; preds = %6
  %11 = call noundef ptr @_ZN13StubGenerator26generate_chacha20Block_avxEv(ptr noundef nonnull align 8 dereferenceable(24) %3)
  store ptr %11, ptr @_ZN12StubRoutines14_chacha20BlockE, align 8
  br label %12

12:                                               ; preds = %10, %8
  br label %13

13:                                               ; preds = %12, %1
  ret void
}